target datalayout = "e-m:e-p270:32:32-p271:32:32-p272:64:64-i64:64-i128:128-f80:128-n8:16:32:64-S128"
target triple = "x86_64-pc-linux-gnu"

%struct.expert_field = type { i32, i32 }

@ei_gsm_a_bssmap_extraneous_data = internal global %struct.expert_field zeroinitializer, align 4

; Function Attrs: null_pointer_is_valid sspstrong uwtable
define internal void @bssmap_ciph_mode_complete(ptr noundef %0, ptr noundef %1, ptr noundef %2, i32 noundef %3, i32 noundef %4) #1 {
  %6 = alloca ptr, align 8
  %7 = alloca ptr, align 8
  %8 = alloca ptr, align 8
  %9 = alloca i32, align 4
  %10 = alloca i32, align 4
  %11 = alloca i32, align 4
  %12 = alloca i32, align 4
  %13 = alloca i32, align 4
  %14 = alloca i32, align 4
  store ptr %0, ptr %6, align 8
  store ptr %1, ptr %7, align 8
  store ptr %2, ptr %8, align 8
  store i32 %3, ptr %9, align 4
  store i32 %4, ptr %10, align 4
  call void @llvm.lifetime.start.p0(i64 4, ptr %11) #5
  call void @llvm.lifetime.start.p0(i64 4, ptr %12) #5
  call void @llvm.lifetime.start.p0(i64 4, ptr %13) #5
  %15 = load i32, ptr %9, align 4
  store i32 %15, ptr %11, align 4
  %16 = load i32, ptr %10, align 4
  store i32 %16, ptr %13, align 4
  %17 = load i32, ptr %13, align 4
  %18 = icmp sle i32 %17, 0
  br i1 %18, label %19, label %20

19:                                               ; preds = %5
  store i32 1, ptr %14, align 4
  br label %71

20:                                               ; preds = %5
  %21 = load ptr, ptr %6, align 8
  %22 = load ptr, ptr %7, align 8
  %23 = load ptr, ptr %8, align 8
  %24 = load i32, ptr %11, align 4
  %25 = load i32, ptr %13, align 4
  %26 = call zeroext i16 @elem_tlv(ptr noundef %21, ptr noundef %22, ptr noundef %23, i8 noundef zeroext 32, i32 noundef 0, i32 noundef 32, i32 noundef %24, i32 noundef %25, ptr noundef null)
  %27 = zext i16 %26 to i32
  store i32 %27, ptr %12, align 4
  %28 = icmp ugt i32 %27, 0
  br i1 %28, label %29, label %36

29:                                               ; preds = %20
  %30 = load i32, ptr %12, align 4
  %31 = load i32, ptr %11, align 4
  %32 = add i32 %31, %30
  store i32 %32, ptr %11, align 4
  %33 = load i32, ptr %12, align 4
  %34 = load i32, ptr %13, align 4
  %35 = sub i32 %34, %33
  store i32 %35, ptr %13, align 4
  br label %36

36:                                               ; preds = %29, %20
  %37 = load i32, ptr %13, align 4
  %38 = icmp sle i32 %37, 0
  br i1 %38, label %39, label %40

39:                                               ; preds = %36
  store i32 1, ptr %14, align 4
  br label %71

40:                                               ; preds = %36
  %41 = load ptr, ptr %6, align 8
  %42 = load ptr, ptr %7, align 8
  %43 = load ptr, ptr %8, align 8
  %44 = load i32, ptr %11, align 4
  %45 = call zeroext i16 @elem_tv(ptr noundef %41, ptr noundef %42, ptr noundef %43, i8 noundef zeroext 44, i32 noundef 0, i32 noundef 44, i32 noundef %44, ptr noundef null)
  %46 = zext i16 %45 to i32
  store i32 %46, ptr %12, align 4
  %47 = icmp ugt i32 %46, 0
  br i1 %47, label %48, label %55

48:                                               ; preds = %40
  %49 = load i32, ptr %12, align 4
  %50 = load i32, ptr %11, align 4
  %51 = add i32 %50, %49
  store i32 %51, ptr %11, align 4
  %52 = load i32, ptr %12, align 4
  %53 = load i32, ptr %13, align 4
  %54 = sub i32 %53, %52
  store i32 %54, ptr %13, align 4
  br label %55

55:                                               ; preds = %48, %40
  %56 = load i32, ptr %13, align 4
  %57 = icmp ugt i32 %56, 0
  br i1 %57, label %58, label %70

58:                                               ; preds = %55
  %59 = load ptr, ptr %7, align 8
  %60 = load ptr, ptr %8, align 8
  %61 = load ptr, ptr %6, align 8
  %62 = load i32, ptr %11, align 4
  %63 = load i32, ptr %13, align 4
  %64 = sub i32 %63, 0
  %65 = call ptr @proto_tree_add_expert(ptr noundef %59, ptr noundef %60, ptr noundef @ei_gsm_a_bssmap_extraneous_data, ptr noundef %61, i32 noundef %62, i32 noundef %64)
  %66 = load i32, ptr %13, align 4
  %67 = sub i32 %66, 0
  %68 = load i32, ptr %11, align 4
  %69 = add i32 %68, %67
  store i32 %69, ptr %11, align 4
  br label %70

70:                                               ; preds = %58, %55
  store i32 0, ptr %14, align 4
  br label %71

71:                                               ; preds = %70, %39, %19
  call void @llvm.lifetime.end.p0(i64 4, ptr %13) #5
  call void @llvm.lifetime.end.p0(i64 4, ptr %12) #5
  call void @llvm.lifetime.end.p0(i64 4, ptr %11) #5
  %72 = load i32, ptr %14, align 4
  switch i32 %72, label %74 [
    i32 0, label %73
    i32 1, label %73
  ]

73:                                               ; preds = %71, %71
  ret void

74:                                               ; preds = %71
  unreachable
}